; Function Attrs: nounwind uwtable
define internal range(i32 0, 2) i32 @IoCommandReadBench(ptr noundef %0, i32 noundef %1, ptr noundef %2) #0 {
  tail call void (...) @Extra_UtilGetoptReset() #18
  br label %4

4:                                                ; preds = %6, %3
  %.018 = phi i32 [ 1, %3 ], [ %7, %6 ]
  %5 = tail call i32 @Extra_UtilGetopt(i32 noundef %1, ptr noundef %2, ptr noundef nonnull @.str.122) #18
  switch i32 %5, label %.loopexit [
    i32 -1, label %8
    i32 99, label %6
  ]

6:                                                ; preds = %4
  %7 = xor i32 %.018, 1
  br label %4, !llvm.loop !46

8:                                                ; preds = %4
  %9 = load i32, ptr @globalUtilOptind, align 4, !tbaa !3
  %10 = add nsw i32 %9, 1
  %.not21 = icmp eq i32 %1, %10
  br i1 %.not21, label %11, label %.loopexit

11:                                               ; preds = %8
  %12 = sext i32 %9 to i64
  %13 = getelementptr inbounds ptr, ptr %2, i64 %12
  %14 = load ptr, ptr %13, align 8, !tbaa !9
  %15 = tail call ptr @Io_Read(ptr noundef %14, i32 noundef 6, i32 noundef %.018, i32 noundef 0) #18
  %16 = icmp eq ptr %15, null
  br i1 %16, label %30, label %17

17:                                               ; preds = %11
  tail call void @Abc_FrameReplaceCurrentNetwork(ptr noundef %0, ptr noundef nonnull %15) #18
  tail call void @Abc_FrameClearVerifStatus(ptr noundef %0) #18
  br label %30

.loopexit:                                        ; preds = %4, %8
  %18 = getelementptr inbounds nuw i8, ptr %0, i64 136
  %19 = load ptr, ptr %18, align 8, !tbaa !34
  %20 = tail call i64 @fwrite(ptr nonnull @.str.138, i64 31, i64 1, ptr %19)
  %21 = load ptr, ptr %18, align 8, !tbaa !34
  %22 = tail call i64 @fwrite(ptr nonnull @.str.139, i64 44, i64 1, ptr %21)
  %23 = load ptr, ptr %18, align 8, !tbaa !34
  %.not22 = icmp eq i32 %.018, 0
  %24 = select i1 %.not22, ptr @.str.114, ptr @.str.113
  %25 = tail call i32 (ptr, ptr, ...) @fprintf(ptr noundef %23, ptr noundef nonnull @.str.115, ptr noundef nonnull %24) #18
  %26 = load ptr, ptr %18, align 8, !tbaa !34
  %27 = tail call i64 @fwrite(ptr nonnull @.str.118, i64 37, i64 1, ptr %26)
  %28 = load ptr, ptr %18, align 8, !tbaa !34
  %29 = tail call i64 @fwrite(ptr nonnull @.str.119, i64 37, i64 1, ptr %28)
  br label %30

30:                                               ; preds = %11, %.loopexit, %17
  %.0 = phi i32 [ 1, %.loopexit ], [ 0, %17 ], [ 1, %11 ]
  ret i32 %.0
}